target datalayout = "e-m:e-p270:32:32-p271:32:32-p272:64:64-i64:64-i128:128-f80:128-n8:16:32:64-S128"
target triple = "x86_64-pc-linux-gnu"

%struct._priv_exr_context_t = type { i8, i8, i8, i8, i8, i8, i8, i8, %struct.exr_attr_string_t, %struct.exr_attr_string_t, ptr, ptr, ptr, ptr, ptr, ptr, ptr, ptr, i32, i32, i32, i32, i32, float, ptr, ptr, ptr, i64, ptr, ptr, i64, i32, i32, i32, i32, %struct._priv_exr_part_t, ptr, ptr, %struct.exr_attribute_list, %union.pthread_mutex_t, i8, i8, [2 x i8], i32 }
%struct.exr_attr_string_t = type { i32, i32, ptr }
%struct._priv_exr_part_t = type { i32, i32, %struct.exr_attribute_list, ptr, ptr, ptr, ptr, ptr, ptr, ptr, ptr, ptr, ptr, ptr, ptr, ptr, ptr, %struct.exr_attr_box2i_t, %struct.exr_attr_box2i_t, i32, i32, i32, float, i32, i32, ptr, ptr, ptr, ptr, i64, i16, i16, i32, i64, i64 }
%struct.exr_attr_box2i_t = type { %struct.exr_attr_v2i_t, %struct.exr_attr_v2i_t }
%struct.exr_attr_v2i_t = type { i32, i32 }
%struct.exr_attribute_list = type { i32, i32, ptr, ptr }
%union.pthread_mutex_t = type { %struct.__pthread_mutex_s }
%struct.__pthread_mutex_s = type { i32, i32, i32, i32, i32, i16, i16, %struct.__pthread_internal_list }
%struct.__pthread_internal_list = type { ptr, ptr }
%struct.exr_attribute_t = type { ptr, ptr, i8, i8, [2 x i8], i32, %union.anon }
%union.anon = type { double }
%struct.exr_attr_m33f_t = type { [9 x float] }

; Function Attrs: inlinehint nounwind uwtable
define internal void @priv_from_native32(ptr noundef %0, i32 noundef %1) #2 {
  %3 = alloca ptr, align 8
  %4 = alloca i32, align 4
  store ptr %0, ptr %3, align 8, !tbaa !32
  store i32 %1, ptr %4, align 4, !tbaa !10
  ret void
}

; Function Attrs: nounwind uwtable
define internal i32 @save_attr_32(ptr noundef %0, ptr noundef %1, i32 noundef %2) #0 {
  %4 = alloca ptr, align 8
  %5 = alloca ptr, align 8
  %6 = alloca i32, align 4
  store ptr %0, ptr %4, align 8, !tbaa !3
  store ptr %1, ptr %5, align 8, !tbaa !32
  store i32 %2, ptr %6, align 4, !tbaa !10
  %7 = load ptr, ptr %5, align 8, !tbaa !32
  %8 = load i32, ptr %6, align 4, !tbaa !10
  call void @priv_from_native32(ptr noundef %7, i32 noundef %8)
  %9 = load ptr, ptr %4, align 8, !tbaa !3
  %10 = getelementptr inbounds nuw %struct._priv_exr_context_t, ptr %9, i32 0, i32 11
  %11 = load ptr, ptr %10, align 8, !tbaa !49
  %12 = load ptr, ptr %4, align 8, !tbaa !3
  %13 = load ptr, ptr %5, align 8, !tbaa !32
  %14 = load i32, ptr %6, align 4, !tbaa !10
  %15 = sext i32 %14 to i64
  %16 = mul i64 4, %15
  %17 = load ptr, ptr %4, align 8, !tbaa !3
  %18 = getelementptr inbounds nuw %struct._priv_exr_context_t, ptr %17, i32 0, i32 30
  %19 = call i32 %11(ptr noundef %12, ptr noundef %13, i64 noundef %16, ptr noundef %18)
  ret i32 %19
}

; Function Attrs: nounwind uwtable
define internal i32 @save_attr_sz(ptr noundef %0, i64 noundef %1) #0 {
  %3 = alloca i32, align 4
  %4 = alloca ptr, align 8
  %5 = alloca i64, align 8
  %6 = alloca i32, align 4
  %7 = alloca i32, align 4
  store ptr %0, ptr %4, align 8, !tbaa !3
  store i64 %1, ptr %5, align 8, !tbaa !61
  call void @llvm.lifetime.start.p0(i64 4, ptr %6) #6
  %8 = load i64, ptr %5, align 8, !tbaa !61
  %9 = icmp ugt i64 %8, 2147483647
  br i1 %9, label %10, label %16

10:                                               ; preds = %2
  %11 = load ptr, ptr %4, align 8, !tbaa !3
  %12 = getelementptr inbounds nuw %struct._priv_exr_context_t, ptr %11, i32 0, i32 12
  %13 = load ptr, ptr %12, align 8, !tbaa !57
  %14 = load ptr, ptr %4, align 8, !tbaa !3
  %15 = call i32 %13(ptr noundef %14, i32 noundef 3)
  store i32 %15, ptr %3, align 4
  store i32 1, ptr %7, align 4
  br label %26

16:                                               ; preds = %2
  %17 = load i64, ptr %5, align 8, !tbaa !61
  %18 = trunc i64 %17 to i32
  store i32 %18, ptr %6, align 4, !tbaa !10
  call void @priv_from_native32(ptr noundef %6, i32 noundef 1)
  %19 = load ptr, ptr %4, align 8, !tbaa !3
  %20 = getelementptr inbounds nuw %struct._priv_exr_context_t, ptr %19, i32 0, i32 11
  %21 = load ptr, ptr %20, align 8, !tbaa !49
  %22 = load ptr, ptr %4, align 8, !tbaa !3
  %23 = load ptr, ptr %4, align 8, !tbaa !3
  %24 = getelementptr inbounds nuw %struct._priv_exr_context_t, ptr %23, i32 0, i32 30
  %25 = call i32 %21(ptr noundef %22, ptr noundef %6, i64 noundef 4, ptr noundef %24)
  store i32 %25, ptr %3, align 4
  store i32 1, ptr %7, align 4
  br label %26

26:                                               ; preds = %16, %10
  call void @llvm.lifetime.end.p0(i64 4, ptr %6) #6
  %27 = load i32, ptr %3, align 4
  ret i32 %27
}

; Function Attrs: nounwind uwtable
define internal i32 @save_m33f(ptr noundef %0, ptr noundef %1) #0 {
  %3 = alloca ptr, align 8
  %4 = alloca ptr, align 8
  %5 = alloca i32, align 4
  %6 = alloca %struct.exr_attr_m33f_t, align 1
  store ptr %0, ptr %3, align 8, !tbaa !3
  store ptr %1, ptr %4, align 8, !tbaa !32
  call void @llvm.lifetime.start.p0(i64 4, ptr %5) #6
  call void @llvm.lifetime.start.p0(i64 36, ptr %6) #6
  %7 = load ptr, ptr %4, align 8, !tbaa !32
  %8 = getelementptr inbounds nuw %struct.exr_attribute_t, ptr %7, i32 0, i32 6
  %9 = load ptr, ptr %8, align 8, !tbaa !37
  call void @llvm.memcpy.p0.p0.i64(ptr align 1 %6, ptr align 1 %9, i64 36, i1 false), !tbaa.struct !81
  %10 = load ptr, ptr %3, align 8, !tbaa !3
  %11 = call i32 @save_attr_sz(ptr noundef %10, i64 noundef 36)
  store i32 %11, ptr %5, align 4, !tbaa !10
  %12 = load i32, ptr %5, align 4, !tbaa !10
  %13 = icmp eq i32 %12, 0
  br i1 %13, label %14, label %17

14:                                               ; preds = %2
  %15 = load ptr, ptr %3, align 8, !tbaa !3
  %16 = call i32 @save_attr_32(ptr noundef %15, ptr noundef %6, i32 noundef 9)
  store i32 %16, ptr %5, align 4, !tbaa !10
  br label %17

17:                                               ; preds = %14, %2
  %18 = load i32, ptr %5, align 4, !tbaa !10
  call void @llvm.lifetime.end.p0(i64 36, ptr %6) #6
  call void @llvm.lifetime.end.p0(i64 4, ptr %5) #6
  ret i32 %18
}